target datalayout = "e-m:e-p270:32:32-p271:32:32-p272:64:64-i64:64-i128:128-f80:128-n8:16:32:64-S128"
target triple = "x86_64-pc-linux-gnu"

%struct.Fra_Sec_t_ = type { i32, i32, i32, i32, i32, i32, i32, i32, i32, i32, i32, i32, i32, i32, i32, i32, i32, i32, i32, i32, i32, i32, i32, i32, i32, i32, i32, i32, i32, i32 }

; Function Attrs: nounwind uwtable
define void @Fra_SecSetDefaultParams(ptr noundef %0) #0 {
  %2 = alloca ptr, align 8
  store ptr %0, ptr %2, align 8, !tbaa !3
  %3 = load ptr, ptr %2, align 8, !tbaa !3
  call void @llvm.memset.p0.i64(ptr align 4 %3, i8 0, i64 120, i1 false)
  %4 = load ptr, ptr %2, align 8, !tbaa !3
  %5 = getelementptr inbounds nuw %struct.Fra_Sec_t_, ptr %4, i32 0, i32 0
  store i32 1, ptr %5, align 4, !tbaa !8
  %6 = load ptr, ptr %2, align 8, !tbaa !3
  %7 = getelementptr inbounds nuw %struct.Fra_Sec_t_, ptr %6, i32 0, i32 1
  store i32 1, ptr %7, align 4, !tbaa !11
  %8 = load ptr, ptr %2, align 8, !tbaa !3
  %9 = getelementptr inbounds nuw %struct.Fra_Sec_t_, ptr %8, i32 0, i32 2
  store i32 4, ptr %9, align 4, !tbaa !12
  %10 = load ptr, ptr %2, align 8, !tbaa !3
  %11 = getelementptr inbounds nuw %struct.Fra_Sec_t_, ptr %10, i32 0, i32 3
  store i32 1000, ptr %11, align 4, !tbaa !13
  %12 = load ptr, ptr %2, align 8, !tbaa !3
  %13 = getelementptr inbounds nuw %struct.Fra_Sec_t_, ptr %12, i32 0, i32 4
  store i32 5000000, ptr %13, align 4, !tbaa !14
  %14 = load ptr, ptr %2, align 8, !tbaa !3
  %15 = getelementptr inbounds nuw %struct.Fra_Sec_t_, ptr %14, i32 0, i32 5
  store i32 10000, ptr %15, align 4, !tbaa !15
  %16 = load ptr, ptr %2, align 8, !tbaa !3
  %17 = getelementptr inbounds nuw %struct.Fra_Sec_t_, ptr %16, i32 0, i32 6
  store i32 150, ptr %17, align 4, !tbaa !16
  %18 = load ptr, ptr %2, align 8, !tbaa !3
  %19 = getelementptr inbounds nuw %struct.Fra_Sec_t_, ptr %18, i32 0, i32 7
  store i32 50000, ptr %19, align 4, !tbaa !17
  %20 = load ptr, ptr %2, align 8, !tbaa !3
  %21 = getelementptr inbounds nuw %struct.Fra_Sec_t_, ptr %20, i32 0, i32 8
  store i32 1000000, ptr %21, align 4, !tbaa !18
  %22 = load ptr, ptr %2, align 8, !tbaa !3
  %23 = getelementptr inbounds nuw %struct.Fra_Sec_t_, ptr %22, i32 0, i32 10
  store i32 0, ptr %23, align 4, !tbaa !19
  %24 = load ptr, ptr %2, align 8, !tbaa !3
  %25 = getelementptr inbounds nuw %struct.Fra_Sec_t_, ptr %24, i32 0, i32 11
  store i32 1, ptr %25, align 4, !tbaa !20
  %26 = load ptr, ptr %2, align 8, !tbaa !3
  %27 = getelementptr inbounds nuw %struct.Fra_Sec_t_, ptr %26, i32 0, i32 12
  store i32 1, ptr %27, align 4, !tbaa !21
  %28 = load ptr, ptr %2, align 8, !tbaa !3
  %29 = getelementptr inbounds nuw %struct.Fra_Sec_t_, ptr %28, i32 0, i32 13
  store i32 1, ptr %29, align 4, !tbaa !22
  %30 = load ptr, ptr %2, align 8, !tbaa !3
  %31 = getelementptr inbounds nuw %struct.Fra_Sec_t_, ptr %30, i32 0, i32 14
  store i32 1, ptr %31, align 4, !tbaa !23
  %32 = load ptr, ptr %2, align 8, !tbaa !3
  %33 = getelementptr inbounds nuw %struct.Fra_Sec_t_, ptr %32, i32 0, i32 15
  store i32 1, ptr %33, align 4, !tbaa !24
  %34 = load ptr, ptr %2, align 8, !tbaa !3
  %35 = getelementptr inbounds nuw %struct.Fra_Sec_t_, ptr %34, i32 0, i32 16
  store i32 0, ptr %35, align 4, !tbaa !25
  %36 = load ptr, ptr %2, align 8, !tbaa !3
  %37 = getelementptr inbounds nuw %struct.Fra_Sec_t_, ptr %36, i32 0, i32 17
  store i32 1, ptr %37, align 4, !tbaa !26
  %38 = load ptr, ptr %2, align 8, !tbaa !3
  %39 = getelementptr inbounds nuw %struct.Fra_Sec_t_, ptr %38, i32 0, i32 18
  store i32 1, ptr %39, align 4, !tbaa !27
  %40 = load ptr, ptr %2, align 8, !tbaa !3
  %41 = getelementptr inbounds nuw %struct.Fra_Sec_t_, ptr %40, i32 0, i32 19
  store i32 1, ptr %41, align 4, !tbaa !28
  %42 = load ptr, ptr %2, align 8, !tbaa !3
  %43 = getelementptr inbounds nuw %struct.Fra_Sec_t_, ptr %42, i32 0, i32 20
  store i32 0, ptr %43, align 4, !tbaa !29
  %44 = load ptr, ptr %2, align 8, !tbaa !3
  %45 = getelementptr inbounds nuw %struct.Fra_Sec_t_, ptr %44, i32 0, i32 21
  store i32 1, ptr %45, align 4, !tbaa !30
  %46 = load ptr, ptr %2, align 8, !tbaa !3
  %47 = getelementptr inbounds nuw %struct.Fra_Sec_t_, ptr %46, i32 0, i32 9
  store i32 60, ptr %47, align 4, !tbaa !31
  %48 = load ptr, ptr %2, align 8, !tbaa !3
  %49 = getelementptr inbounds nuw %struct.Fra_Sec_t_, ptr %48, i32 0, i32 22
  store i32 0, ptr %49, align 4, !tbaa !32
  %50 = load ptr, ptr %2, align 8, !tbaa !3
  %51 = getelementptr inbounds nuw %struct.Fra_Sec_t_, ptr %50, i32 0, i32 23
  store i32 0, ptr %51, align 4, !tbaa !33
  %52 = load ptr, ptr %2, align 8, !tbaa !3
  %53 = getelementptr inbounds nuw %struct.Fra_Sec_t_, ptr %52, i32 0, i32 24
  store i32 0, ptr %53, align 4, !tbaa !34
  %54 = load ptr, ptr %2, align 8, !tbaa !3
  %55 = getelementptr inbounds nuw %struct.Fra_Sec_t_, ptr %54, i32 0, i32 25
  store i32 0, ptr %55, align 4, !tbaa !35
  %56 = load ptr, ptr %2, align 8, !tbaa !3
  %57 = getelementptr inbounds nuw %struct.Fra_Sec_t_, ptr %56, i32 0, i32 29
  store i32 0, ptr %57, align 4, !tbaa !36
  ret void
}