; Function Attrs: mustprogress nofree norecurse nosync nounwind willreturn memory(argmem: write) uwtable
define void @Fra_SecSetDefaultParams(ptr noundef writeonly captures(none) initializes((0, 120)) %0) local_unnamed_addr #0 {
  %2 = getelementptr inbounds nuw i8, ptr %0, i64 104
  tail call void @llvm.memset.p0.i64(ptr noundef nonnull align 4 dereferenceable(120) %2, i8 0, i64 12, i1 false)
  store i32 1, ptr %0, align 4, !tbaa !3
  %3 = getelementptr inbounds nuw i8, ptr %0, i64 4
  store i32 1, ptr %3, align 4, !tbaa !8
  %4 = getelementptr inbounds nuw i8, ptr %0, i64 8
  store i32 4, ptr %4, align 4, !tbaa !9
  %5 = getelementptr inbounds nuw i8, ptr %0, i64 12
  store i32 1000, ptr %5, align 4, !tbaa !10
  %6 = getelementptr inbounds nuw i8, ptr %0, i64 16
  store i32 5000000, ptr %6, align 4, !tbaa !11
  %7 = getelementptr inbounds nuw i8, ptr %0, i64 20
  store i32 10000, ptr %7, align 4, !tbaa !12
  %8 = getelementptr inbounds nuw i8, ptr %0, i64 24
  store i32 150, ptr %8, align 4, !tbaa !13
  %9 = getelementptr inbounds nuw i8, ptr %0, i64 28
  store i32 50000, ptr %9, align 4, !tbaa !14
  %10 = getelementptr inbounds nuw i8, ptr %0, i64 32
  store i32 1000000, ptr %10, align 4, !tbaa !15
  %11 = getelementptr inbounds nuw i8, ptr %0, i64 40
  store i32 0, ptr %11, align 4, !tbaa !16
  %12 = getelementptr inbounds nuw i8, ptr %0, i64 44
  store i32 1, ptr %12, align 4, !tbaa !17
  %13 = getelementptr inbounds nuw i8, ptr %0, i64 48
  store i32 1, ptr %13, align 4, !tbaa !18
  %14 = getelementptr inbounds nuw i8, ptr %0, i64 52
  store i32 1, ptr %14, align 4, !tbaa !19
  %15 = getelementptr inbounds nuw i8, ptr %0, i64 56
  store i32 1, ptr %15, align 4, !tbaa !20
  %16 = getelementptr inbounds nuw i8, ptr %0, i64 60
  store i32 1, ptr %16, align 4, !tbaa !21
  %17 = getelementptr inbounds nuw i8, ptr %0, i64 64
  store i32 0, ptr %17, align 4, !tbaa !22
  %18 = getelementptr inbounds nuw i8, ptr %0, i64 68
  store i32 1, ptr %18, align 4, !tbaa !23
  %19 = getelementptr inbounds nuw i8, ptr %0, i64 72
  store i32 1, ptr %19, align 4, !tbaa !24
  %20 = getelementptr inbounds nuw i8, ptr %0, i64 76
  store i32 1, ptr %20, align 4, !tbaa !25
  %21 = getelementptr inbounds nuw i8, ptr %0, i64 80
  store i32 0, ptr %21, align 4, !tbaa !26
  %22 = getelementptr inbounds nuw i8, ptr %0, i64 84
  store i32 1, ptr %22, align 4, !tbaa !27
  %23 = getelementptr inbounds nuw i8, ptr %0, i64 36
  store i32 60, ptr %23, align 4, !tbaa !28
  %24 = getelementptr inbounds nuw i8, ptr %0, i64 88
  %25 = getelementptr inbounds nuw i8, ptr %0, i64 116
  store i32 0, ptr %25, align 4, !tbaa !29
  tail call void @llvm.memset.p0.i64(ptr noundef nonnull align 4 dereferenceable(16) %24, i8 0, i64 16, i1 false)
  ret void
}